target datalayout = "e-m:e-p270:32:32-p271:32:32-p272:64:64-i64:64-i128:128-f80:128-n8:16:32:64-S128"
target triple = "x86_64-pc-linux-gnu"

%class.anon = type { ptr }
%"class.std::unique_ptr" = type { %"struct.std::__uniq_ptr_data" }
%"struct.std::__uniq_ptr_data" = type { %"class.std::__uniq_ptr_impl" }
%"class.std::__uniq_ptr_impl" = type { %"class.std::tuple" }
%"class.std::tuple" = type { %"struct.std::_Tuple_impl" }
%"struct.std::_Tuple_impl" = type { %"struct.std::_Tuple_impl.0", %"struct.std::_Head_base.1" }
%"struct.std::_Tuple_impl.0" = type { %"struct.std::_Head_base" }
%"struct.std::_Head_base" = type { %class.anon }
%"struct.std::_Head_base.1" = type { ptr }

; Function Attrs: mustprogress nounwind uwtable
define internal noundef nonnull align 8 dereferenceable(8) ptr @"_ZNSt10_Head_baseILm1EZN6Assimp11FBXImporter14InternReadFileERKNSt7__cxx1112basic_stringIcSt11char_traitsIcESaIcEEEP7aiScenePNS0_8IOSystemEE3$_0Lb0EE7_M_headERSF_"(ptr noundef nonnull align 8 dereferenceable(8) %0) #0 align 2 {
  %2 = alloca ptr, align 8
  store ptr %0, ptr %2, align 8
  %3 = load ptr, ptr %2, align 8
  %4 = getelementptr inbounds nuw %"struct.std::_Head_base", ptr %3, i32 0, i32 0
  ret ptr %4
}

; Function Attrs: mustprogress nounwind uwtable
define internal noundef nonnull align 8 dereferenceable(8) ptr @"_ZNSt11_Tuple_implILm1EJZN6Assimp11FBXImporter14InternReadFileERKNSt7__cxx1112basic_stringIcSt11char_traitsIcESaIcEEEP7aiScenePNS0_8IOSystemEE3$_0EE7_M_headERSF_"(ptr noundef nonnull align 8 dereferenceable(8) %0) #0 align 2 {
  %2 = alloca ptr, align 8
  store ptr %0, ptr %2, align 8
  %3 = load ptr, ptr %2, align 8
  %4 = call noundef nonnull align 8 dereferenceable(8) ptr @"_ZNSt10_Head_baseILm1EZN6Assimp11FBXImporter14InternReadFileERKNSt7__cxx1112basic_stringIcSt11char_traitsIcESaIcEEEP7aiScenePNS0_8IOSystemEE3$_0Lb0EE7_M_headERSF_"(ptr noundef nonnull align 8 dereferenceable(8) %3) #18
  ret ptr %4
}

; Function Attrs: mustprogress nounwind uwtable
define linkonce_odr noundef nonnull align 8 dereferenceable(8) ptr @_ZNSt10_Head_baseILm0EPN6Assimp8IOStreamELb0EE7_M_headERS3_(ptr noundef nonnull align 8 dereferenceable(8) %0) #0 comdat align 2 {
  %2 = alloca ptr, align 8
  store ptr %0, ptr %2, align 8
  %3 = load ptr, ptr %2, align 8
  %4 = getelementptr inbounds nuw %"struct.std::_Head_base.1", ptr %3, i32 0, i32 0
  ret ptr %4
}

; Function Attrs: mustprogress nounwind uwtable
define internal noundef nonnull align 8 dereferenceable(8) ptr @"_ZSt12__get_helperILm1EZN6Assimp11FBXImporter14InternReadFileERKNSt7__cxx1112basic_stringIcSt11char_traitsIcESaIcEEEP7aiScenePNS0_8IOSystemEE3$_0JEERT0_RSt11_Tuple_implIXT_EJSF_DpT1_EE"(ptr noundef nonnull align 8 dereferenceable(8) %0) #0 {
  %2 = alloca ptr, align 8
  store ptr %0, ptr %2, align 8
  %3 = load ptr, ptr %2, align 8
  %4 = call noundef nonnull align 8 dereferenceable(8) ptr @"_ZNSt11_Tuple_implILm1EJZN6Assimp11FBXImporter14InternReadFileERKNSt7__cxx1112basic_stringIcSt11char_traitsIcESaIcEEEP7aiScenePNS0_8IOSystemEE3$_0EE7_M_headERSF_"(ptr noundef nonnull align 8 dereferenceable(8) %3) #18
  ret ptr %4
}

; Function Attrs: mustprogress nounwind uwtable
define internal noundef nonnull align 8 dereferenceable(8) ptr @"_ZNSt11_Tuple_implILm0EJPN6Assimp8IOStreamEZNS0_11FBXImporter14InternReadFileERKNSt7__cxx1112basic_stringIcSt11char_traitsIcESaIcEEEP7aiScenePNS0_8IOSystemEE3$_0EE7_M_headERSH_"(ptr noundef nonnull align 8 dereferenceable(16) %0) #0 align 2 {
  %2 = alloca ptr, align 8
  store ptr %0, ptr %2, align 8
  %3 = load ptr, ptr %2, align 8
  %4 = getelementptr inbounds i8, ptr %3, i64 8
  %5 = call noundef nonnull align 8 dereferenceable(8) ptr @_ZNSt10_Head_baseILm0EPN6Assimp8IOStreamELb0EE7_M_headERS3_(ptr noundef nonnull align 8 dereferenceable(8) %4) #18
  ret ptr %5
}

; Function Attrs: mustprogress nounwind uwtable
define internal noundef nonnull align 8 dereferenceable(8) ptr @"_ZSt3getILm1EJPN6Assimp8IOStreamEZNS0_11FBXImporter14InternReadFileERKNSt7__cxx1112basic_stringIcSt11char_traitsIcESaIcEEEP7aiScenePNS0_8IOSystemEE3$_0EERNSt13tuple_elementIXT_ESt5tupleIJDpT0_EEE4typeERSL_"(ptr noundef nonnull align 8 dereferenceable(16) %0) #0 {
  %2 = alloca ptr, align 8
  store ptr %0, ptr %2, align 8
  %3 = load ptr, ptr %2, align 8
  %4 = call noundef nonnull align 8 dereferenceable(8) ptr @"_ZSt12__get_helperILm1EZN6Assimp11FBXImporter14InternReadFileERKNSt7__cxx1112basic_stringIcSt11char_traitsIcESaIcEEEP7aiScenePNS0_8IOSystemEE3$_0JEERT0_RSt11_Tuple_implIXT_EJSF_DpT1_EE"(ptr noundef nonnull align 8 dereferenceable(8) %3) #18
  ret ptr %4
}

; Function Attrs: mustprogress nounwind uwtable
define internal noundef nonnull align 8 dereferenceable(8) ptr @"_ZSt12__get_helperILm0EPN6Assimp8IOStreamEJZNS0_11FBXImporter14InternReadFileERKNSt7__cxx1112basic_stringIcSt11char_traitsIcESaIcEEEP7aiScenePNS0_8IOSystemEE3$_0EERT0_RSt11_Tuple_implIXT_EJSH_DpT1_EE"(ptr noundef nonnull align 8 dereferenceable(16) %0) #0 {
  %2 = alloca ptr, align 8
  store ptr %0, ptr %2, align 8
  %3 = load ptr, ptr %2, align 8
  %4 = call noundef nonnull align 8 dereferenceable(8) ptr @"_ZNSt11_Tuple_implILm0EJPN6Assimp8IOStreamEZNS0_11FBXImporter14InternReadFileERKNSt7__cxx1112basic_stringIcSt11char_traitsIcESaIcEEEP7aiScenePNS0_8IOSystemEE3$_0EE7_M_headERSH_"(ptr noundef nonnull align 8 dereferenceable(16) %3) #18
  ret ptr %4
}

; Function Attrs: mustprogress nounwind uwtable
define internal noundef nonnull align 8 dereferenceable(8) ptr @"_ZNSt15__uniq_ptr_implIN6Assimp8IOStreamEZNS0_11FBXImporter14InternReadFileERKNSt7__cxx1112basic_stringIcSt11char_traitsIcESaIcEEEP7aiScenePNS0_8IOSystemEE3$_0E10_M_deleterEv"(ptr noundef nonnull align 8 dereferenceable(16) %0) #0 align 2 {
  %2 = alloca ptr, align 8
  store ptr %0, ptr %2, align 8
  %3 = load ptr, ptr %2, align 8
  %4 = getelementptr inbounds nuw %"class.std::__uniq_ptr_impl", ptr %3, i32 0, i32 0
  %5 = call noundef nonnull align 8 dereferenceable(8) ptr @"_ZSt3getILm1EJPN6Assimp8IOStreamEZNS0_11FBXImporter14InternReadFileERKNSt7__cxx1112basic_stringIcSt11char_traitsIcESaIcEEEP7aiScenePNS0_8IOSystemEE3$_0EERNSt13tuple_elementIXT_ESt5tupleIJDpT0_EEE4typeERSL_"(ptr noundef nonnull align 8 dereferenceable(16) %4) #18
  ret ptr %5
}

; Function Attrs: mustprogress nounwind uwtable
define internal noundef nonnull align 8 dereferenceable(8) ptr @"_ZSt3getILm0EJPN6Assimp8IOStreamEZNS0_11FBXImporter14InternReadFileERKNSt7__cxx1112basic_stringIcSt11char_traitsIcESaIcEEEP7aiScenePNS0_8IOSystemEE3$_0EERNSt13tuple_elementIXT_ESt5tupleIJDpT0_EEE4typeERSL_"(ptr noundef nonnull align 8 dereferenceable(16) %0) #0 {
  %2 = alloca ptr, align 8
  store ptr %0, ptr %2, align 8
  %3 = load ptr, ptr %2, align 8
  %4 = call noundef nonnull align 8 dereferenceable(8) ptr @"_ZSt12__get_helperILm0EPN6Assimp8IOStreamEJZNS0_11FBXImporter14InternReadFileERKNSt7__cxx1112basic_stringIcSt11char_traitsIcESaIcEEEP7aiScenePNS0_8IOSystemEE3$_0EERT0_RSt11_Tuple_implIXT_EJSH_DpT1_EE"(ptr noundef nonnull align 8 dereferenceable(16) %3) #18
  ret ptr %4
}

; Function Attrs: inlinehint mustprogress uwtable
define internal void @"_ZZN6Assimp11FBXImporter14InternReadFileERKNSt7__cxx1112basic_stringIcSt11char_traitsIcESaIcEEEP7aiScenePNS_8IOSystemEENK3$_0clEPNS_8IOStreamE"(ptr noundef nonnull align 8 dereferenceable(8) %0, ptr noundef %1) #4 align 2 {
  %3 = alloca ptr, align 8
  %4 = alloca ptr, align 8
  store ptr %0, ptr %3, align 8
  store ptr %1, ptr %4, align 8
  %5 = load ptr, ptr %3, align 8
  %6 = getelementptr inbounds nuw %class.anon, ptr %5, i32 0, i32 0
  %7 = load ptr, ptr %6, align 8
  %8 = load ptr, ptr %7, align 8
  %9 = load ptr, ptr %4, align 8
  %10 = load ptr, ptr %8, align 8
  %11 = getelementptr inbounds ptr, ptr %10, i64 5
  %12 = load ptr, ptr %11, align 8
  call void %12(ptr noundef nonnull align 8 dereferenceable(32) %8, ptr noundef %9)
  ret void
}

; Function Attrs: mustprogress nounwind uwtable
define internal noundef nonnull align 8 dereferenceable(8) ptr @"_ZNSt10unique_ptrIN6Assimp8IOStreamEZNS0_11FBXImporter14InternReadFileERKNSt7__cxx1112basic_stringIcSt11char_traitsIcESaIcEEEP7aiScenePNS0_8IOSystemEE3$_0E11get_deleterEv"(ptr noundef nonnull align 8 dereferenceable(16) %0) #0 align 2 {
  %2 = alloca ptr, align 8
  store ptr %0, ptr %2, align 8
  %3 = load ptr, ptr %2, align 8
  %4 = getelementptr inbounds nuw %"class.std::unique_ptr", ptr %3, i32 0, i32 0
  %5 = call noundef nonnull align 8 dereferenceable(8) ptr @"_ZNSt15__uniq_ptr_implIN6Assimp8IOStreamEZNS0_11FBXImporter14InternReadFileERKNSt7__cxx1112basic_stringIcSt11char_traitsIcESaIcEEEP7aiScenePNS0_8IOSystemEE3$_0E10_M_deleterEv"(ptr noundef nonnull align 8 dereferenceable(16) %4) #18
  ret ptr %5
}

; Function Attrs: mustprogress nounwind uwtable
define internal noundef nonnull align 8 dereferenceable(8) ptr @"_ZNSt15__uniq_ptr_implIN6Assimp8IOStreamEZNS0_11FBXImporter14InternReadFileERKNSt7__cxx1112basic_stringIcSt11char_traitsIcESaIcEEEP7aiScenePNS0_8IOSystemEE3$_0E6_M_ptrEv"(ptr noundef nonnull align 8 dereferenceable(16) %0) #0 align 2 {
  %2 = alloca ptr, align 8
  store ptr %0, ptr %2, align 8
  %3 = load ptr, ptr %2, align 8
  %4 = getelementptr inbounds nuw %"class.std::__uniq_ptr_impl", ptr %3, i32 0, i32 0
  %5 = call noundef nonnull align 8 dereferenceable(8) ptr @"_ZSt3getILm0EJPN6Assimp8IOStreamEZNS0_11FBXImporter14InternReadFileERKNSt7__cxx1112basic_stringIcSt11char_traitsIcESaIcEEEP7aiScenePNS0_8IOSystemEE3$_0EERNSt13tuple_elementIXT_ESt5tupleIJDpT0_EEE4typeERSL_"(ptr noundef nonnull align 8 dereferenceable(16) %4) #18
  ret ptr %5
}

; Function Attrs: mustprogress nounwind uwtable
define internal void @"_ZNSt10unique_ptrIN6Assimp8IOStreamEZNS0_11FBXImporter14InternReadFileERKNSt7__cxx1112basic_stringIcSt11char_traitsIcESaIcEEEP7aiScenePNS0_8IOSystemEE3$_0ED2Ev"(ptr noundef nonnull align 8 dereferenceable(16) %0) unnamed_addr #0 align 2 personality ptr @__gxx_personality_v0 {
  %2 = alloca ptr, align 8
  %3 = alloca ptr, align 8
  store ptr %0, ptr %2, align 8
  %4 = load ptr, ptr %2, align 8
  call void @llvm.lifetime.start.p0(i64 8, ptr %3) #18
  %5 = getelementptr inbounds nuw %"class.std::unique_ptr", ptr %4, i32 0, i32 0
  %6 = call noundef nonnull align 8 dereferenceable(8) ptr @"_ZNSt15__uniq_ptr_implIN6Assimp8IOStreamEZNS0_11FBXImporter14InternReadFileERKNSt7__cxx1112basic_stringIcSt11char_traitsIcESaIcEEEP7aiScenePNS0_8IOSystemEE3$_0E6_M_ptrEv"(ptr noundef nonnull align 8 dereferenceable(16) %5) #18
  store ptr %6, ptr %3, align 8
  %7 = load ptr, ptr %3, align 8
  %8 = load ptr, ptr %7, align 8
  %9 = icmp ne ptr %8, null
  br i1 %9, label %10, label %15

10:                                               ; preds = %1
  %11 = call noundef nonnull align 8 dereferenceable(8) ptr @"_ZNSt10unique_ptrIN6Assimp8IOStreamEZNS0_11FBXImporter14InternReadFileERKNSt7__cxx1112basic_stringIcSt11char_traitsIcESaIcEEEP7aiScenePNS0_8IOSystemEE3$_0E11get_deleterEv"(ptr noundef nonnull align 8 dereferenceable(16) %4) #18
  %12 = load ptr, ptr %3, align 8
  %13 = load ptr, ptr %12, align 8
  invoke void @"_ZZN6Assimp11FBXImporter14InternReadFileERKNSt7__cxx1112basic_stringIcSt11char_traitsIcESaIcEEEP7aiScenePNS_8IOSystemEENK3$_0clEPNS_8IOStreamE"(ptr noundef nonnull align 8 dereferenceable(8) %11, ptr noundef %13)
          to label %14 unwind label %17

14:                                               ; preds = %10
  br label %15

15:                                               ; preds = %14, %1
  %16 = load ptr, ptr %3, align 8
  store ptr null, ptr %16, align 8
  call void @llvm.lifetime.end.p0(i64 8, ptr %3) #18
  ret void

17:                                               ; preds = %10
  %18 = landingpad { ptr, i32 }
          catch ptr null
  %19 = extractvalue { ptr, i32 } %18, 0
  call void @__clang_call_terminate(ptr %19) #20
  unreachable
}