; Function Attrs: mustprogress nounwind uwtable
define internal fastcc void @"_ZNSt10unique_ptrIN6Assimp8IOStreamEZNS0_11FBXImporter14InternReadFileERKNSt7__cxx1112basic_stringIcSt11char_traitsIcESaIcEEEP7aiScenePNS0_8IOSystemEE3$_0ED2Ev"(ptr noundef nonnull align 8 captures(none) dereferenceable(16) %0) unnamed_addr #10 align 2 personality ptr @__gxx_personality_v0 {
  %2 = getelementptr inbounds nuw i8, ptr %0, i64 8
  %3 = load ptr, ptr %2, align 8
  %.not = icmp eq ptr %3, null
  br i1 %.not, label %"_ZZN6Assimp11FBXImporter14InternReadFileERKNSt7__cxx1112basic_stringIcSt11char_traitsIcESaIcEEEP7aiScenePNS_8IOSystemEENK3$_0clEPNS_8IOStreamE.exit", label %4

4:                                                ; preds = %1
  %.val = load ptr, ptr %0, align 8
  %.val.val = load ptr, ptr %.val, align 8
  %5 = load ptr, ptr %.val.val, align 8
  %6 = getelementptr inbounds nuw i8, ptr %5, i64 40
  %7 = load ptr, ptr %6, align 8
  invoke void %7(ptr noundef nonnull align 8 dereferenceable(32) %.val.val, ptr noundef nonnull %3)
          to label %"_ZZN6Assimp11FBXImporter14InternReadFileERKNSt7__cxx1112basic_stringIcSt11char_traitsIcESaIcEEEP7aiScenePNS_8IOSystemEENK3$_0clEPNS_8IOStreamE.exit" unwind label %8

"_ZZN6Assimp11FBXImporter14InternReadFileERKNSt7__cxx1112basic_stringIcSt11char_traitsIcESaIcEEEP7aiScenePNS_8IOSystemEENK3$_0clEPNS_8IOStreamE.exit": ; preds = %4, %1
  store ptr null, ptr %2, align 8
  ret void

8:                                                ; preds = %4
  %9 = landingpad { ptr, i32 }
          catch ptr null
  %10 = extractvalue { ptr, i32 } %9, 0
  tail call void @__clang_call_terminate(ptr %10) #25
  unreachable
}